target datalayout = "e-m:e-p270:32:32-p271:32:32-p272:64:64-i64:64-i128:128-f80:128-n8:16:32:64-S128"
target triple = "x86_64-pc-linux-gnu"

%struct.RelationData = type { %struct.RelFileLocator, ptr, i32, i32, i8, i8, i8, i8, i8, i32, i32, i32, i32, ptr, ptr, i32, %struct.LockInfoData, ptr, ptr, ptr, ptr, ptr, i8, ptr, ptr, ptr, ptr, ptr, ptr, i32, ptr, i8, ptr, ptr, i32, i8, i32, ptr, i8, ptr, ptr, ptr, ptr, ptr, ptr, ptr, i32, ptr, ptr, ptr, ptr, ptr, ptr, ptr, ptr, ptr, ptr, ptr, ptr, ptr, ptr, ptr, ptr, ptr, ptr, ptr, i32, i8, ptr }
%struct.RelFileLocator = type { i32, i32, i32 }
%struct.LockInfoData = type { %struct.LockRelId }
%struct.LockRelId = type { i32, i32 }
%struct.FormData_pg_class = type { i32, %struct.nameData, i32, i32, i32, i32, i32, i32, i32, i32, float, i32, i32, i8, i8, i8, i8, i16, i16, i8, i8, i8, i8, i8, i8, i8, i8, i32, i32, i32 }
%struct.nameData = type { [64 x i8] }
%struct.IndexAmRoutine = type { i32, i16, i16, i16, i8, i8, i8, i8, i8, i8, i8, i8, i8, i8, i8, i8, i8, i8, i8, i8, i8, i32, ptr, ptr, ptr, ptr, ptr, ptr, ptr, ptr, ptr, ptr, ptr, ptr, ptr, ptr, ptr, ptr, ptr, ptr, ptr, ptr, ptr, ptr, ptr, ptr, ptr, ptr }

@.str = private unnamed_addr constant [53 x i8] c"cannot access index \22%s\22 while it is being reindexed\00", align 1
@.str.1 = private unnamed_addr constant [10 x i8] c"indexam.c\00", align 1
@__func__.index_insert = private unnamed_addr constant [13 x i8] c"index_insert\00", align 1
@.str.2 = private unnamed_addr constant [44 x i8] c"function \22%s\22 is not defined for index \22%s\22\00", align 1
@.str.3 = private unnamed_addr constant [9 x i8] c"aminsert\00", align 1

; Function Attrs: nounwind uwtable
define dso_local zeroext i1 @index_insert(ptr noundef %0, ptr noundef %1, ptr noundef %2, ptr noundef %3, ptr noundef %4, i32 noundef %5, i1 noundef zeroext %6, ptr noundef %7) #0 {
  %9 = alloca ptr, align 8
  %10 = alloca ptr, align 8
  %11 = alloca ptr, align 8
  %12 = alloca ptr, align 8
  %13 = alloca ptr, align 8
  %14 = alloca i32, align 4
  %15 = alloca i8, align 1
  %16 = alloca ptr, align 8
  store ptr %0, ptr %9, align 8
  store ptr %1, ptr %10, align 8
  store ptr %2, ptr %11, align 8
  store ptr %3, ptr %12, align 8
  store ptr %4, ptr %13, align 8
  store i32 %5, ptr %14, align 4
  %17 = zext i1 %6 to i8
  store i8 %17, ptr %15, align 1
  store ptr %7, ptr %16, align 8
  br label %18

18:                                               ; preds = %8
  %19 = load ptr, ptr %9, align 8
  %20 = getelementptr inbounds nuw %struct.RelationData, ptr %19, i32 0, i32 15
  %21 = load i32, ptr %20, align 8
  %22 = call zeroext i1 @ReindexIsProcessingIndex(i32 noundef %21)
  %23 = zext i1 %22 to i32
  %24 = icmp ne i32 %23, 0
  %25 = zext i1 %24 to i32
  %26 = sext i32 %25 to i64
  %27 = call i64 @llvm.expect.i64(i64 %26, i64 0)
  %28 = icmp ne i64 %27, 0
  br i1 %28, label %29, label %46

29:                                               ; preds = %18
  br label %30

30:                                               ; preds = %29
  br i1 true, label %31, label %33

31:                                               ; preds = %30
  %32 = call zeroext i1 @errstart_cold(i32 noundef 21, ptr noundef null) #8
  br i1 %32, label %35, label %44

33:                                               ; preds = %30
  %34 = call zeroext i1 @errstart(i32 noundef 21, ptr noundef null)
  br i1 %34, label %35, label %44

35:                                               ; preds = %33, %31
  %36 = call i32 @errcode(i32 noundef 1088)
  %37 = load ptr, ptr %9, align 8
  %38 = getelementptr inbounds nuw %struct.RelationData, ptr %37, i32 0, i32 13
  %39 = load ptr, ptr %38, align 8
  %40 = getelementptr inbounds nuw %struct.FormData_pg_class, ptr %39, i32 0, i32 1
  %41 = getelementptr inbounds nuw %struct.nameData, ptr %40, i32 0, i32 0
  %42 = getelementptr inbounds [64 x i8], ptr %41, i64 0, i64 0
  %43 = call i32 (ptr, ...) @errmsg(ptr noundef @.str, ptr noundef %42)
  call void @errfinish(ptr noundef @.str.1, i32 noundef 222, ptr noundef @__func__.index_insert)
  br label %44

44:                                               ; preds = %35, %33, %31
  unreachable

45:                                               ; No predecessors!
  br label %46

46:                                               ; preds = %45, %18
  br label %47

47:                                               ; preds = %46
  br label %48

48:                                               ; preds = %47
  %49 = load ptr, ptr %9, align 8
  %50 = getelementptr inbounds nuw %struct.RelationData, ptr %49, i32 0, i32 51
  %51 = load ptr, ptr %50, align 8
  %52 = getelementptr inbounds nuw %struct.IndexAmRoutine, ptr %51, i32 0, i32 24
  %53 = load ptr, ptr %52, align 8
  %54 = icmp eq ptr %53, null
  br i1 %54, label %55, label %71

55:                                               ; preds = %48
  br label %56

56:                                               ; preds = %55
  br i1 true, label %57, label %59

57:                                               ; preds = %56
  %58 = call zeroext i1 @errstart_cold(i32 noundef 21, ptr noundef null) #8
  br i1 %58, label %61, label %69

59:                                               ; preds = %56
  %60 = call zeroext i1 @errstart(i32 noundef 21, ptr noundef null)
  br i1 %60, label %61, label %69

61:                                               ; preds = %59, %57
  %62 = load ptr, ptr %9, align 8
  %63 = getelementptr inbounds nuw %struct.RelationData, ptr %62, i32 0, i32 13
  %64 = load ptr, ptr %63, align 8
  %65 = getelementptr inbounds nuw %struct.FormData_pg_class, ptr %64, i32 0, i32 1
  %66 = getelementptr inbounds nuw %struct.nameData, ptr %65, i32 0, i32 0
  %67 = getelementptr inbounds [64 x i8], ptr %66, i64 0, i64 0
  %68 = call i32 (ptr, ...) @errmsg_internal(ptr noundef @.str.2, ptr noundef @.str.3, ptr noundef %67)
  call void @errfinish(ptr noundef @.str.1, i32 noundef 223, ptr noundef @__func__.index_insert)
  br label %69

69:                                               ; preds = %61, %59, %57
  unreachable

70:                                               ; No predecessors!
  br label %71

71:                                               ; preds = %70, %48
  br label %72

72:                                               ; preds = %71
  %73 = load ptr, ptr %9, align 8
  %74 = getelementptr inbounds nuw %struct.RelationData, ptr %73, i32 0, i32 51
  %75 = load ptr, ptr %74, align 8
  %76 = getelementptr inbounds nuw %struct.IndexAmRoutine, ptr %75, i32 0, i32 14
  %77 = load i8, ptr %76, align 4, !range !4, !noundef !5
  %78 = trunc i8 %77 to i1
  br i1 %78, label %81, label %79

79:                                               ; preds = %72
  %80 = load ptr, ptr %9, align 8
  call void @CheckForSerializableConflictIn(ptr noundef %80, ptr noundef null, i32 noundef -1)
  br label %81

81:                                               ; preds = %79, %72
  %82 = load ptr, ptr %9, align 8
  %83 = getelementptr inbounds nuw %struct.RelationData, ptr %82, i32 0, i32 51
  %84 = load ptr, ptr %83, align 8
  %85 = getelementptr inbounds nuw %struct.IndexAmRoutine, ptr %84, i32 0, i32 24
  %86 = load ptr, ptr %85, align 8
  %87 = load ptr, ptr %9, align 8
  %88 = load ptr, ptr %10, align 8
  %89 = load ptr, ptr %11, align 8
  %90 = load ptr, ptr %12, align 8
  %91 = load ptr, ptr %13, align 8
  %92 = load i32, ptr %14, align 4
  %93 = load i8, ptr %15, align 1, !range !4, !noundef !5
  %94 = trunc i8 %93 to i1
  %95 = load ptr, ptr %16, align 8
  %96 = call zeroext i1 %86(ptr noundef %87, ptr noundef %88, ptr noundef %89, ptr noundef %90, ptr noundef %91, i32 noundef %92, i1 noundef zeroext %94, ptr noundef %95)
  ret i1 %96
}