; Function Attrs: nounwind uwtable
define dso_local zeroext i1 @index_insert(ptr noundef %0, ptr noundef %1, ptr noundef %2, ptr noundef %3, ptr noundef %4, i32 noundef %5, i1 noundef zeroext %6, ptr noundef %7) local_unnamed_addr #0 {
  %9 = getelementptr inbounds nuw i8, ptr %0, i64 72
  %10 = load i32, ptr %9, align 8
  %11 = tail call zeroext i1 @ReindexIsProcessingIndex(i32 noundef %10) #7
  br i1 %11, label %12, label %19, !prof !4

12:                                               ; preds = %8
  %13 = tail call zeroext i1 @errstart_cold(i32 noundef 21, ptr noundef null) #8
  tail call void @llvm.assume(i1 %13)
  %14 = tail call i32 @errcode(i32 noundef 1088) #7
  %15 = getelementptr inbounds nuw i8, ptr %0, i64 56
  %16 = load ptr, ptr %15, align 8
  %17 = getelementptr inbounds nuw i8, ptr %16, i64 4
  %18 = tail call i32 (ptr, ...) @errmsg(ptr noundef nonnull @.str, ptr noundef nonnull %17) #7
  tail call void @errfinish(ptr noundef nonnull @.str.1, i32 noundef 222, ptr noundef nonnull @__func__.index_insert) #7
  unreachable

19:                                               ; preds = %8
  %20 = getelementptr inbounds nuw i8, ptr %0, i64 352
  %21 = load ptr, ptr %20, align 8
  %22 = getelementptr inbounds nuw i8, ptr %21, i64 48
  %23 = load ptr, ptr %22, align 8
  %24 = icmp eq ptr %23, null
  br i1 %24, label %25, label %31

25:                                               ; preds = %19
  %26 = tail call zeroext i1 @errstart_cold(i32 noundef 21, ptr noundef null) #8
  tail call void @llvm.assume(i1 %26)
  %27 = getelementptr inbounds nuw i8, ptr %0, i64 56
  %28 = load ptr, ptr %27, align 8
  %29 = getelementptr inbounds nuw i8, ptr %28, i64 4
  %30 = tail call i32 (ptr, ...) @errmsg_internal(ptr noundef nonnull @.str.2, ptr noundef nonnull @.str.3, ptr noundef nonnull %29) #7
  tail call void @errfinish(ptr noundef nonnull @.str.1, i32 noundef 223, ptr noundef nonnull @__func__.index_insert) #7
  unreachable

31:                                               ; preds = %19
  %32 = getelementptr inbounds nuw i8, ptr %21, i64 20
  %33 = load i8, ptr %32, align 4, !range !5, !noundef !6
  %34 = trunc nuw i8 %33 to i1
  br i1 %34, label %36, label %35

35:                                               ; preds = %31
  tail call void @CheckForSerializableConflictIn(ptr noundef nonnull %0, ptr noundef null, i32 noundef -1) #7
  %.pre = load ptr, ptr %20, align 8
  %.phi.trans.insert = getelementptr inbounds nuw i8, ptr %.pre, i64 48
  %.pre14 = load ptr, ptr %.phi.trans.insert, align 8
  br label %36

36:                                               ; preds = %35, %31
  %37 = phi ptr [ %.pre14, %35 ], [ %23, %31 ]
  %38 = tail call zeroext i1 %37(ptr noundef nonnull %0, ptr noundef %1, ptr noundef %2, ptr noundef %3, ptr noundef %4, i32 noundef %5, i1 noundef zeroext %6, ptr noundef %7) #7
  ret i1 %38
}